(lp1
S'RealSelf'
p2
aS'Credit Karma'
p3
aS'Seeking specialists'
p4
aS'SoundCloud'
p5
aS'WP Engine'
p6
aS'iRobot'
p7
aS'Skyscanner'
p8
aS'Upwork'
p9
aS'Blue Jeans Network'
p10
aS'ARK Ecosystem'
p11
aS'StackPath'
p12
aS'Caviar'
p13
aS'Jet.com'
p14
aS'Caffeine'
p15
aS'Dell Technologies'
p16
aS'DarkMatter'
p17
aS'Redox'
p18
aS'DigitalOcean'
p19
aS'Atlassian Opsgenie'
p20
aS'Sprout Social'
p21
aS'Telef\\xf3nica Germany'
p22
aS'Zynga Whitehat'
p23
aS'Zilliqa'
p24
aS'Western Union Kudos '
p25
aS'Twilio'
p26
aS'SEEK '
p27
aS'TripAdvisor Vulnerability Disclosure Program '
p28
aS'Okta'
p29
aS'Netflix'
p30
aS'Directly'
p31
aS'Pinterest'
p32
aS'IOTA Trinity Wallet'
p33
aS'Mailgun '
p34
aS'Magic Leap One - Cloud Ecosystem'
p35
aS'Magic Leap One - Device'
p36
aS'PlanetHoster'
p37
aS"Blockport's Vulnerability Disclosure"
p38
aS'Arkose Labs'
p39
aS'USAA'
p40
aS'Cloudways'
p41
aS'PureVPN'
p42
aS'Trello'
p43
aS'Binance'
p44
aS'Segment'
p45
aS"Overstock's Vulnerability Disclosure Page!"
p46
aS'Acorns Grow, Inc.'
p47
aS'Atlassian'
p48
aS'Heroku'
p49
aS'arlo Kudos Rewards'
p50
aS'arlo Cash Rewards'
p51
aS'Blend'
p52
aS'UNDER ARMOUR'
p53
aS'Keeper Security Public Bounty Program'
p54
aS'Moneytree KK'
p55
aS'Square Open Source'
p56
aS'Etsy'
p57
aS'Cisco Meraki'
p58
aS'GO-JEK'
p59
aS'Bitdefender Box v2'
p60
aS'SmartThings Vulnerability Disclosure'
p61
aS'Optimizely'
p62
aS'Square'
p63
aS'Fitbit'
p64
aS'Sophos'
p65
aS'MemoTrader Vulnerability Disclosure'
p66
aS'SAP Concur'
p67
aS'Dash Digital Cash'
p68
aS'Bitdefender'
p69
aS'eero'
p70
aS'Centrify'
p71
aS'You Need a Budget (YNAB)'
p72
aS'NETGEAR Kudos Rewards'
p73
aS'NETGEAR Cash Rewards'
p74
aS' 1Password'
p75
aS'Intercom'
p76
aS'HubSpot Responsible Disclosure'
p77
aS'InVision '
p78
aS'LastPass'
p79
aS'OWASP Java Encoder'
p80
aS'Constant Contact, Inc.'
p81
aS'MasterCard'
p82
aS'Fiat Chrysler Automobiles'
p83
aS'OWASP Java HTML Sanitizer'
p84
aS'OWASP CSRFGuard'
p85
aS'OWASP ZAP'
p86
aS'Kenna Security'
p87
aS'Tesla'
p88
aS'Socrata'
p89
aS'(ISC)\\xb2'
p90
aS'SecureDrop'
p91
aS'Indeed'
p92
aS'Western Union'
p93
aS'FoxyCart'
p94
aS'Appliances - Barracuda Networks, Inc.'
p95
aS'Humble Bundle'
p96
aS'Pantheon'
p97
aS'Simple'
p98
aS'CARD.com'
p99
aS'Statuspage'
p100
aS'WHMCS Client Management Portal'
p101
aS'Hack Me!'
p102
aS'Bugcrowd'
p103
a.